target datalayout = "e-m:e-p270:32:32-p271:32:32-p272:64:64-i64:64-i128:128-f80:128-n8:16:32:64-S128"
target triple = "x86_64-pc-linux-gnu"

%struct.strvec = type { ptr, i64, i64 }
%struct.trace_key = type { ptr, i32, i8 }

@.str.5 = private unnamed_addr constant [4 x i8] c"git\00", align 1
@__const.execv_git_cmd.nargv = private unnamed_addr constant %struct.strvec { ptr @empty_strvec, i64 0, i64 0 }, align 8
@trace_default_key = external global %struct.trace_key, align 8
@.str.6 = private unnamed_addr constant [11 x i8] c"exec-cmd.c\00", align 1
@.str.7 = private unnamed_addr constant [13 x i8] c"trace: exec:\00", align 1
@.str.8 = private unnamed_addr constant [24 x i8] c"trace: exec failed: %s\0A\00", align 1

; Function Attrs: inlinehint nounwind uwtable
define internal i32 @trace_pass_fl(ptr noundef %0) #3 {
  %2 = alloca ptr, align 8
  store ptr %0, ptr %2, align 8, !tbaa !23
  %3 = load ptr, ptr %2, align 8, !tbaa !23
  %4 = getelementptr inbounds nuw %struct.trace_key, ptr %3, i32 0, i32 1
  %5 = load i32, ptr %4, align 8, !tbaa !25
  %6 = icmp ne i32 %5, 0
  br i1 %6, label %15, label %7

7:                                                ; preds = %1
  %8 = load ptr, ptr %2, align 8, !tbaa !23
  %9 = getelementptr inbounds nuw %struct.trace_key, ptr %8, i32 0, i32 2
  %10 = load i8, ptr %9, align 4
  %11 = and i8 %10, 1
  %12 = zext i8 %11 to i32
  %13 = icmp ne i32 %12, 0
  %14 = xor i1 %13, true
  br label %15

15:                                               ; preds = %7, %1
  %16 = phi i1 [ true, %1 ], [ %14, %7 ]
  %17 = zext i1 %16 to i32
  ret i32 %17
}

; Function Attrs: nounwind uwtable
define dso_local ptr @prepare_git_cmd(ptr noundef %0, ptr noundef %1) #0 {
  %3 = alloca ptr, align 8
  %4 = alloca ptr, align 8
  store ptr %0, ptr %3, align 8, !tbaa !15
  store ptr %1, ptr %4, align 8, !tbaa !17
  %5 = load ptr, ptr %3, align 8, !tbaa !15
  %6 = call ptr @strvec_push(ptr noundef %5, ptr noundef @.str.5)
  %7 = load ptr, ptr %3, align 8, !tbaa !15
  %8 = load ptr, ptr %4, align 8, !tbaa !17
  call void @strvec_pushv(ptr noundef %7, ptr noundef %8)
  %9 = load ptr, ptr %3, align 8, !tbaa !15
  %10 = getelementptr inbounds nuw %struct.strvec, ptr %9, i32 0, i32 0
  %11 = load ptr, ptr %10, align 8, !tbaa !19
  ret ptr %11
}

; Function Attrs: nounwind uwtable
define dso_local i32 @execv_git_cmd(ptr noundef %0) #0 {
  %2 = alloca ptr, align 8
  %3 = alloca %struct.strvec, align 8
  store ptr %0, ptr %2, align 8, !tbaa !17
  call void @llvm.lifetime.start.p0(i64 24, ptr %3) #9
  call void @llvm.memcpy.p0.p0.i64(ptr align 8 %3, ptr align 8 @__const.execv_git_cmd.nargv, i64 24, i1 false)
  %4 = load ptr, ptr %2, align 8, !tbaa !17
  %5 = call ptr @prepare_git_cmd(ptr noundef %3, ptr noundef %4)
  br label %6

6:                                                ; preds = %1
  %7 = call i32 @trace_pass_fl(ptr noundef @trace_default_key)
  %8 = icmp ne i32 %7, 0
  br i1 %8, label %9, label %12

9:                                                ; preds = %6
  %10 = getelementptr inbounds nuw %struct.strvec, ptr %3, i32 0, i32 0
  %11 = load ptr, ptr %10, align 8, !tbaa !19
  call void (ptr, i32, ptr, ptr, ...) @trace_argv_printf_fl(ptr noundef @.str.6, i32 noundef 364, ptr noundef %11, ptr noundef @.str.7)
  br label %12

12:                                               ; preds = %9, %6
  br label %13

13:                                               ; preds = %12
  br label %14

14:                                               ; preds = %13
  %15 = getelementptr inbounds nuw %struct.strvec, ptr %3, i32 0, i32 0
  %16 = load ptr, ptr %15, align 8, !tbaa !19
  %17 = call i32 @sane_execvp(ptr noundef @.str.5, ptr noundef %16)
  br label %18

18:                                               ; preds = %14
  %19 = call i32 @trace_pass_fl(ptr noundef @trace_default_key)
  %20 = icmp ne i32 %19, 0
  br i1 %20, label %21, label %25

21:                                               ; preds = %18
  %22 = call ptr @__errno_location() #11
  %23 = load i32, ptr %22, align 4, !tbaa !21
  %24 = call ptr @strerror(i32 noundef %23) #9
  call void (ptr, i32, ptr, ptr, ...) @trace_printf_key_fl(ptr noundef @.str.6, i32 noundef 369, ptr noundef @trace_default_key, ptr noundef @.str.8, ptr noundef %24)
  br label %25

25:                                               ; preds = %21, %18
  br label %26

26:                                               ; preds = %25
  br label %27

27:                                               ; preds = %26
  call void @strvec_clear(ptr noundef %3)
  call void @llvm.lifetime.end.p0(i64 24, ptr %3) #9
  ret i32 -1
}