; Function Attrs: nounwind uwtable
define dso_local noundef i32 @execv_git_cmd(ptr noundef %0) local_unnamed_addr #1 {
  %2 = alloca %struct.strvec, align 8
  call void @llvm.lifetime.start.p0(i64 24, ptr nonnull %2) #10
  call void @llvm.memcpy.p0.p0.i64(ptr noundef nonnull align 8 dereferenceable(24) %2, ptr noundef nonnull align 8 dereferenceable(24) @__const.execv_git_cmd.nargv, i64 24, i1 false)
  %3 = call ptr @strvec_push(ptr noundef nonnull %2, ptr noundef nonnull @.str.5) #10
  call void @strvec_pushv(ptr noundef nonnull %2, ptr noundef %0) #10
  %4 = load i32, ptr getelementptr inbounds nuw (i8, ptr @trace_default_key, i64 8), align 8, !tbaa !18
  %.not.i = icmp eq i32 %4, 0
  %5 = load i8, ptr getelementptr inbounds nuw (i8, ptr @trace_default_key, i64 12), align 4
  %6 = and i8 %5, 1
  %.not3 = icmp ne i8 %6, 0
  %.not = select i1 %.not.i, i1 %.not3, i1 false
  br i1 %.not, label %9, label %7

7:                                                ; preds = %1
  %8 = load ptr, ptr %2, align 8, !tbaa !15
  call void (ptr, i32, ptr, ptr, ...) @trace_argv_printf_fl(ptr noundef nonnull @.str.6, i32 noundef 364, ptr noundef %8, ptr noundef nonnull @.str.7) #10
  br label %9

9:                                                ; preds = %7, %1
  %10 = load ptr, ptr %2, align 8, !tbaa !15
  %11 = call i32 @sane_execvp(ptr noundef nonnull @.str.5, ptr noundef %10) #10
  %12 = load i32, ptr getelementptr inbounds nuw (i8, ptr @trace_default_key, i64 8), align 8, !tbaa !18
  %.not.i2 = icmp eq i32 %12, 0
  %13 = load i8, ptr getelementptr inbounds nuw (i8, ptr @trace_default_key, i64 12), align 4
  %14 = and i8 %13, 1
  %.not14 = icmp ne i8 %14, 0
  %.not1 = select i1 %.not.i2, i1 %.not14, i1 false
  br i1 %.not1, label %19, label %15

15:                                               ; preds = %9
  %16 = tail call ptr @__errno_location() #12
  %17 = load i32, ptr %16, align 4, !tbaa !21
  %18 = call ptr @strerror(i32 noundef %17) #10
  call void (ptr, i32, ptr, ptr, ...) @trace_printf_key_fl(ptr noundef nonnull @.str.6, i32 noundef 369, ptr noundef nonnull @trace_default_key, ptr noundef nonnull @.str.8, ptr noundef %18) #10
  br label %19

19:                                               ; preds = %15, %9
  call void @strvec_clear(ptr noundef nonnull %2) #10
  call void @llvm.lifetime.end.p0(i64 24, ptr nonnull %2) #10
  ret i32 -1
}